target datalayout = "e-m:e-p270:32:32-p271:32:32-p272:64:64-i64:64-i128:128-f80:128-n8:16:32:64-S128"
target triple = "x86_64-pc-linux-gnu"

; Function Attrs: nounwind uwtable
define dso_local ptr @asc_tolower(ptr noundef %0, i64 noundef %1) #0 {
  %3 = alloca ptr, align 8
  %4 = alloca ptr, align 8
  %5 = alloca i64, align 8
  %6 = alloca ptr, align 8
  %7 = alloca ptr, align 8
  %8 = alloca i32, align 4
  store ptr %0, ptr %4, align 8
  store i64 %1, ptr %5, align 8
  call void @llvm.lifetime.start.p0(i64 8, ptr %6) #11
  call void @llvm.lifetime.start.p0(i64 8, ptr %7) #11
  %9 = load ptr, ptr %4, align 8
  %10 = icmp ne ptr %9, null
  br i1 %10, label %12, label %11

11:                                               ; preds = %2
  store ptr null, ptr %3, align 8
  store i32 1, ptr %8, align 4
  br label %31

12:                                               ; preds = %2
  %13 = load ptr, ptr %4, align 8
  %14 = load i64, ptr %5, align 8
  %15 = call ptr @pnstrdup(ptr noundef %13, i64 noundef %14)
  store ptr %15, ptr %6, align 8
  %16 = load ptr, ptr %6, align 8
  store ptr %16, ptr %7, align 8
  br label %17

17:                                               ; preds = %26, %12
  %18 = load ptr, ptr %7, align 8
  %19 = load i8, ptr %18, align 1
  %20 = icmp ne i8 %19, 0
  br i1 %20, label %21, label %29

21:                                               ; preds = %17
  %22 = load ptr, ptr %7, align 8
  %23 = load i8, ptr %22, align 1
  %24 = call zeroext i8 @pg_ascii_tolower(i8 noundef zeroext %23)
  %25 = load ptr, ptr %7, align 8
  store i8 %24, ptr %25, align 1
  br label %26

26:                                               ; preds = %21
  %27 = load ptr, ptr %7, align 8
  %28 = getelementptr inbounds nuw i8, ptr %27, i32 1
  store ptr %28, ptr %7, align 8
  br label %17, !llvm.loop !6

29:                                               ; preds = %17
  %30 = load ptr, ptr %6, align 8
  store ptr %30, ptr %3, align 8
  store i32 1, ptr %8, align 4
  br label %31

31:                                               ; preds = %29, %11
  call void @llvm.lifetime.end.p0(i64 8, ptr %7) #11
  call void @llvm.lifetime.end.p0(i64 8, ptr %6) #11
  %32 = load ptr, ptr %3, align 8
  ret ptr %32
}