; Function Attrs: nounwind uwtable
define dso_local noundef ptr @asc_tolower(ptr noundef %0, i64 noundef %1) local_unnamed_addr #0 {
  %.not = icmp eq ptr %0, null
  br i1 %.not, label %.loopexit, label %3

3:                                                ; preds = %2
  %4 = tail call ptr @pnstrdup(ptr noundef nonnull %0, i64 noundef %1) #18
  %5 = load i8, ptr %4, align 1
  %.not1213 = icmp eq i8 %5, 0
  br i1 %.not1213, label %.loopexit, label %.lr.ph

.lr.ph:                                           ; preds = %3, %.lr.ph
  %6 = phi i8 [ %9, %.lr.ph ], [ %5, %3 ]
  %.014 = phi ptr [ %8, %.lr.ph ], [ %4, %3 ]
  %7 = tail call zeroext i8 @pg_ascii_tolower(i8 noundef zeroext %6) #18
  store i8 %7, ptr %.014, align 1
  %8 = getelementptr inbounds nuw i8, ptr %.014, i64 1
  %9 = load i8, ptr %8, align 1
  %.not12 = icmp eq i8 %9, 0
  br i1 %.not12, label %.loopexit, label %.lr.ph, !llvm.loop !6

.loopexit:                                        ; preds = %.lr.ph, %3, %2
  %.09 = phi ptr [ null, %2 ], [ %4, %3 ], [ %4, %.lr.ph ]
  ret ptr %.09
}